; Function Attrs: mustprogress nofree norecurse nosync nounwind willreturn memory(argmem: readwrite) uwtable
define hidden void @_ZN7datalog16mk_elim_term_iteC2ERNS_7contextEj(ptr nocapture noundef nonnull writeonly align 8 dereferenceable(64) %this, ptr noundef nonnull align 8 dereferenceable(3556) %ctx, i32 noundef %priority) unnamed_addr #3 align 2 personality ptr @__gxx_personality_v0 {
invoke.cont5:
  %m_priority.i = getelementptr inbounds i8, ptr %this, i64 8
  store i32 %priority, ptr %m_priority.i, align 8
  %m_can_destratify_negation.i = getelementptr inbounds i8, ptr %this, i64 12
  store i8 0, ptr %m_can_destratify_negation.i, align 4
  %m_transformer.i = getelementptr inbounds i8, ptr %this, i64 16
  store ptr null, ptr %m_transformer.i, align 8
  store ptr getelementptr inbounds ({ [6 x ptr] }, ptr @_ZTVN7datalog16mk_elim_term_iteE, i64 0, i32 0, i64 2), ptr %this, align 8
  %m_ctx = getelementptr inbounds i8, ptr %this, i64 24
  store ptr %ctx, ptr %m_ctx, align 8
  %m = getelementptr inbounds i8, ptr %this, i64 32
  %0 = load ptr, ptr %ctx, align 8
  store ptr %0, ptr %m, align 8
  %rm = getelementptr inbounds i8, ptr %this, i64 40
  %m_rule_manager.i = getelementptr inbounds i8, ptr %ctx, i64 656
  store ptr %m_rule_manager.i, ptr %rm, align 8
  %m_ground = getelementptr inbounds i8, ptr %this, i64 48
  %1 = ptrtoint ptr %0 to i64
  store i64 %1, ptr %m_ground, align 8
  %m_nodes.i.i = getelementptr inbounds i8, ptr %this, i64 56
  store ptr null, ptr %m_nodes.i.i, align 8
  ret void
}